Microsoft (R) Macro Assembler Version 5.10                  10/6/19 17:38:14
                                                             Page     1-1


				.386P ; (1)–†–∞s—Ä–µ—à–µ–Ω–∏–µ –∫–æw–∞–∏–¥ –ú–ü
				 386 –∏ 486 
				; –°—Ç—Ä—É–∫—Ç—É—Ä–∞ –¥–ª—è –æ–ø–∫—ÅAH–∏—è –¥–µ
				—Å–∫—Ä–∏–ø—Ç–æ—Ä–æ–≤ —Å–µ–≥–º–µ–Ω—Ç–æ–≤ 
				
				descr struc  ;(2) 
 0000  0000			limit dw 0; (3)–ì—ÄAH–∏—Ü–∞ (–±–∏—Ç—ã –û ... 15
				) 
 0002  0000			base_l dw 0 ; (4)–ë–∞–∑–∞, –±–∏—Ç—ã 0...15 
 0004  00			base_m db 0 ; (5)–ë–∞–∑–∞, –±–∏—Ç—ã 16.. 23 
 0005  00			attr_1 db 0 ; (–±)–ë–∞–π—Ç –∞—Ç—Ä–∏–±—É—Ç–æ–≤ 1
				 
 0006  00			attr_2 db 0 ; (7)–ì—ÄAH–∏—Ü–∞ (–±–∏—Ç—ã 16 ... 
				19) –∏ –∞—Ç—Ä–∏–±—É—Ç—ã 2 
 0007  00			base_h db 0 ; (8)–ë–∞–∑–∞, –±–∏—Ç—ã 24 ... 31 
 0008				descr ends  ; (9)
				
 0000				data segment ; (10) –ù–∞—á–∞–ø–æ —Å–µ–≥–º–µ–Ω—Ç
				–∞ –¥AH–Ω—ã—Ö 
				; –¢–∞–±–ª–∏—Ü–∞ –≥–ª–æ–±–∞–ª—å–Ω—ã—Ö –¥–µ—Å–∫—
				Ä–∏n—Ç–æ—Ä–æ–≤ GDT 
 0000  0000			gdt_null descr <0,0,0,0,0,0>; (11);Hyneao–π –¥–
				µ—Å–∫—Ä–∏n—Ç–æ—Ä 
 0002  0000			
 0004  00			
 0005  00			
 0006  00			
 0007  00			
				
 0008  4700			gdt_data descr <data_size-1,0,0,92h>; (12)Ce–ª-
				—Ä 8, —Å–µr–º–µ–Ω—Ç –¥AH–Ω—ã—Ö 
 000A  0000			
 000C  00			
 000D  92			
 000E  00			
 000F  00			
				
 0010  6001			gdt_code descr <code_size-1,,,98h>; (13)–°–µ–ª–
				µ–∫—Ç–æ—Ä 16, —Å–µr–º–µ–Ω—Ç –∫–æ–ºAH–¥ 
 0012  0000			
 0014  00			
 0015  98			
 0016  00			
 0017  00			
				
 0018  FF00			gdt_stack descr <255,0,0,92h>; (14)–°–µ–ª–µ–∫—Ç
				–æ—Ä 24, —Å–µ–≥–º–µ–Ω—Ç —Å—Ç–µ–∫–∞ 
 001A  0000			
 001C  00			
 001D  92			
 001E  00			
 001F  00			
				
 0020  FF0F			gdt_screen descr <4095,8000h,0Bh,92h>; (15)–°–µ
Microsoft (R) Macro Assembler Version 5.10                  10/6/19 17:38:14
                                                             Page     1-2


				–ª–µ–∫—Ç–æ—Ä 32, –≤–∏–¥–µ–æ–±—É—Ñ–µ—Ä 
 0022  0080			
 0024  0B			
 0025  92			
 0026  00			
 0027  00			
				
 = 0028				gdt_size=$-gdt_null ; (16) –†–∞–∑–º–µ—Ä GD–¢ 
				
				; –ü–æ–ª—è –¥AH–Ω—ã—Ö –ø—Ä–æ–≥–∞–º–º—ã
 0028  0000000000000000		pdescr 	dq 0 	;(17)–ü—Å–µ–≤–¥–æ–¥–µ—Å–∫—Ä–∏n—
				Ç–æ—Ä 
 0030  01			sym 	db 1 	; (18) –°–∏–º–≤–æ–ª –¥–ª—è –≤—ã
				–≤–æ–¥–∞ –∏–∞ —ç–∫—ÄAH
 0031  1E			attr	db 1Eh 	; (19) –µ–≥–æ –∞—Ç—Ä–∏–±—É—Ç 
 0032  1B 5B 30 20 72 65	mes 	db 27,'[0 real modeee ',27,' [O$'; (20)
				 
       61 6C 20 6D 6F 64	
       65 65 65 20 1B 20	
       5B 4F 24			
 0047  00			s      db ?
 = 0048				data_size=$-gdt_null ; (21) –†–∞–∑–º–µ—Ä —Å–µ–≥
				–º–µ–Ω—Ç–∞ –¥AH–Ω—ã—Ö 
 0048				data ends ; ( 22) –ö–æ–∫–µ—Ü —Å–µru–µ–∏—Ç–∞ –¥A
				H–∏—ã—Ö 
				
				
 0000				text segment 'code' use16; (23)–£–∫–∞–∂–µ–º 16-
				—Ä–∞–∑—Ä—è–Ω—ã–π —Ä–µ–∂–∏–º 
					assume CS:text,DS:data; (24) 
 0000				main proc ; (25) 
 0000  66| 33 C0			xor EAX, EAX 			
					;  (26) –û—á–∏—Å—Ç–∏–º EAX 
 0003  B8 ---- R			mov AX, data 			
					; (27)–ó–∞–≥—Ä—É–∑–∏–º –≤ DS —Å–µr–º–µ–
				∏—Ç–∏—ã–π 
 0006  8E D8				mov DS, AX 			
						; (28) –∞–¥—Ä–µ—Å —Å–µr–º–µ–∏—Ç
				–∞ –¥AH–Ω—ã—Ö 
				; –í—ã—á–∏—Å–ª–∏–º 32-–±–∏—Ç–æ–≤—ã–π –ª–∏–Ω–µ–π
				–Ω—ã–π –∞–¥—Ä–µ—Å —Å–µr–º–µ–Ω—Ç–∞ –¥–∞–∏–∏—ã—Ö 
				–∏ –∑–∞–≥—Ä—É–∑–∏–º ero 
				; –≤ –¥–µ—Å–∫—Ä–∏–ø—Ç–æ—Ä —Å–µr–º–µ–∏—Ç–∞ –¥AH–
				Ω—ã—Ö –∞ GDT. 
 0008  66| C1 E0 04			shl EAX, 4 			
						;  (29) –í EAX –ø–∏–Ω–µ–π–∏–Ω–π
				 –±–∞s–æ–∞—ã–π –∞–¥—Ä–µ—Å 
 000C  66| 8B E8			mov EBP, EAX			
					; (3–û)–°–æ—Ö—ÄAH–∏–º –µ–≥–æ –≤ EBP 
 000F  66| BB 0008 R			mov EBX, offset gdt_data	; (31)–
				í BX –∞–¥—Ä–µ—Å –¥–µ—Å–∫—Ä–∏–ø—Ç–æ—Ä–∞ 
 0015  89 47 02				mov [BX].base_l, AX 		; (32)–
				ó–∞r—Ä—És–∏–º NIIa–¥iDYJO —á–∞—Å—Ç—å –±–∞s—ã 
 0018  66| C1 C0 10			rol EAX, 16 			
Microsoft (R) Macro Assembler Version 5.10                  10/6/19 17:38:14
                                                             Page     1-3


					; (33)0–±–º–µ–Ω –°'l!–∞—Ä—à–µ–π –∏ –úJJ
				–∞–¥—à–µ–π –ø–æ–ø–æ–∞–∏–∏ EAX 
 001C  88 47 04				mov [BX].base_m, AL		
					; (34) –≠–∞l'—Ä—És–∏–º cpe–¥–òICIIO —á–
				∞—Å—Ç—å –±–∞s—ã 
				; Allanor...–ºo –¥–ø11 –ø–∏–∏–µ–π—Ö–ær–æ –∞–¥—Ä
				–µ—Å–∞ —Å–µr–º–µ–∫—Ç–∞ –∫–æN&–ù–î 
 001F  66| 33 C0			xor EAX, EAX 			
					; (35)0—á–∏—Å—Ç–∏–º EAX 
 0022  8C C8				mov AX, CS 			
						; (36)–õIIpec —Å–µr–º–µ–Ω—Ç–∞ –
				∫–æN&–ù–î 
 0024  66| C1 E0 04			shl EAX, 4 			
						; (37)Yw–∫o3DD& –∏–∞ 16 .
 0028  66| BB 0010 R			mov EBX,offset gdt_code		; (38)–
				ê–¥—Ä–µ—Å –¥–µ—Å–∫—Ä–∏–ø—Ç–æ—Ä–∞ 
 002E  89 47 02				mov [BX].base_l, AX		; (39) 
				–ó–∞l'—Ä—És–∏–º NJJa–¥iDYJO —á–∞—Å—Ç—å –±–∞s—ã 
 0031  66| C1 C0 10			rol EAX,16 			
						; ( 40) –û–±–º–µ–Ω –ø–æ–ø–æ–∞–∏
				–∏ EAX 
 0035  88 47 04				mov [BX].base_m, AL		
					; (41)–≠–∞r—Ä—És–∏–º cpe–¥–òICIIO —á–∞—
				Å—Ç—å –±–∞s–∫ 
					
					
					;AIIano:t'–∏—á–∏o –¥n‚Ä¢ –ø–∏–∏–µ–π–∏–æ
				r–æ –∞–¥—Ä–µ—Å–∞ cerNea—Ça —Å—Ç–µ–∫–∞ 
 0038  66| 33 C0			xor EAX, EAX			
						 ; (421 
 003B  8C D0				mov AX, SS			
						; (43) 
 003D  66| C1 E0 04			shl EAX, 4			
						; (441 
 0041  66| BB 0018 R			mov EBX, offset gdt_stack	; (45)
 0047  89 47 02				mov [BX].base_l, AX		
					; (46) 
 004A  66| C1 C0 10			rol EAX, 16 ; (471 
 004E  88 47 04				mov [BX].base_m, AL		
						; (48) 
					;1Doaroeoa–Ωw –∞–æ–µ–∞–¥–æ–¥–µ—Å–∫—Ä–ö–
				ü—Ç–æ—Ä pdescr –∏ s&:t'pys–∏–º —Ä–µr–∏—Å—Ç—Ä GD
				–¢R 
					
 0051  67| 66| 89 2D 0000		mov dword ptr pdescr + 2, EBP	
							; (49)Sasa GDT, –±–∏—Ç—
				ã –æ ... 31 
       002A R			
 0059  67| C7 05 00000028 R		mov word ptr pdescr, gdt_size-1	
							; (50)I'—Ä–∞–∏–∏—Ü–∞ GD
				–¢ 
       0027			
 0062  67| 0F 01 15 00000028		lgdt pdescr 			
							; ( 511 –óarpys101 —Ä–µ
Microsoft (R) Macro Assembler Version 5.10                  10/6/19 17:38:14
                                                             Page     1-4


				r–∏—Å—Ç—Ä GD–¢R 
proc.asm(68): warning A4057: Illegal size for operand
	R			
					
					;J–üOJ~rOT08NNC8 –∫ –≤–µ—Ä–µ—Ö–æ–¥—É –∞
				 s–∞—â–∫—â–µ–∏–∏—ã–π —Ä~ 
 006A  FA				cli 				
							; (52)–≠–∞n—Ä–µ—Ç –∞–øn
				–∞—Ä–∞—Ç–Ω—ã—Ö –∞—Ä–µ—Ä—ã–∞–∞–∏–∏–π 
 006B  B0 80				mov AL, 80h 			
					; (53) –ó–∞n—Ä–µ—Ç N–úI 
 006D  E6 70				out 70h, AL 			
					;J(541–ü–æ—Ä—Ç –ö–ú–û–ü-–º–∫–∫—Ä–æCX–µN
				–´ 
					;–ü–µ—Ä–µ—Ö–æ–¥–∏–º –∞ sUDCJae–ò–öIIII–
				ô —Ä–µ–∂–∏–º 
 006F  0F 20 C0				mov EAX, CR0 			
					;1 (55 ) –ü–æ–ø—É—á–∏–º —Å–æ–¥–µ—Ä–∞;–∏
				w–æ–µ CR0 
 0072  66| 83 C8 01			or 	EAX, 1 			
							; (56)–£—Å—ÇAH–æ–∞–∏–º 
				–±–∏—Ç –†! 
 0076  0F 22 C0				mov CR0, EAX 			
					; (57 1 9–∞—à–∞–∞–µ–∫ –∏–∞s–∞–¥ –≤ CR0 
				;–¢–µ–ø–µ—Ä‚Ä¢ –ø—Ä–æ—Ü–µ—Å—Å–æ—Ä pa–±O'.I!acw 
				–∞ a..,ar,e1111CI–ù ~ 
				;9–∞r—Ä—É.–∫–∞–µ–º –≤ CS:IP —Å–µ–ø–µ—Ö—Ç–æ—Ä:—Å
				–º–µ—â–µ–∏–∏–µ —Ç–æ—á—Ö–∏ continue 
				;–∏ s–∞–æ–¥–Ω–æ –æ—á–∏—â–∞–µ–º –æ—á–µ—Ä–µ–¥—å –
				∫–æw–∞–∏–¥ 
 0079  EA				db 0EAh 			
					; (58 1 –ö–æ–¥ –∫–æ–ºAH–¥—ã far j:111p 
 007A  007E R				dw offset continue		
					; (591–°–º–∞—â–µ–∏–∏–µ 
 007C  0010				dw 16			 ; (601–°–µ.–ø–
				µ–∫—Ç–æ—Ä —Å–µr–º–µ–Ω—Ç–∞ –∫–æ–º–∞–∏–¥ 
					
					
 007E				continue:      ; (611 ;–î–µ–ø–∞–µ–º –∞–¥—Ä–µ—Å—
				É–µ~ –¥–∞–∏–∏—ã–µ 
 007E  B8 0008				mov AX, 8 			
					;  ( 62 1 –°–µ–ø–µ–∫—Ç–æ—Ä —Å–µr–º–µ–Ω—
				Ç–∞ –¥iUUUoiX 
 0081  8E D8				mov DS, AX 			
					;			 (631 ; –î–µ–ø–
				∞–µ–º –∞–¥—Ä–µ—Å—É–µw—ã–º —Å—Ç–µ–∫ 
					
 0083  B8 0018				mov AX, 24 			
					;  ( 641 –°–µ.–ø–µ–∫—Ç–æ—Ä —Å–µr–º–µ–Ω—
				Ç–∞ —Å—Ç–µ–∫–∞ 
 0086  8E D0				mov SS,AX 			; (651 
					
					;–ò–∏–∏—Ü–∏:–∞.–ø–∏s–ò—Ä—É–µ–º ES –∏ –í
				–´II–û–î–ò–ú —Å–∏–º–≤–æ–ø—är 
 0088  B8 0020				mov AX,32 			
Microsoft (R) Macro Assembler Version 5.10                  10/6/19 17:38:14
                                                             Page     1-5


					; (–±–±i–°–µ–ø–µ–∫—Ç–æ—Ä —Å–µr–º–µ–Ω—Ç–
				∞ –≤–∏–¥–µ–æ–±—Ét–µ—Ä–∞ 
 008B  8E C0				mov ES,AX 			
					; (671 
 008D  BB 0320				mov BX, 800 			
					; 1 68 1 –ù–∞—á–ê–õ—å–Ω–æ–µ —Å–º–µ—â–µ–
				Ω–∏–µ –Ω–∞ :~–∫—ÄAH–µ 
 0090  B9 0040				mov CX, 64 			
					;  ( –± 9 1 –ß–∏—Å–ø–æ II–´IIO–¥—éaa¬´ 
				—Å–∏–º–≤–æ.–ø–æ–∞ 311 
 0093  67| A1 00000030 R		mov AX,word ptr sym		
						; (701–ù–∞—áu—å–Ω—ã–π —Å–∏–º–≤–
				æ.–ø —Å –∞—Ç—Ä–∏–±—É—Ç–æ–º 
					
 0099				screen: 
 0099  26: 89 07			mov ES:[BX], AX 		
					; (11 1 –í11111–æ–¥ –≤ –∞–∏–¥–µ–æ–±—É—Ñ
				–µ—Ä 
 009C  83 C3 02				add BX, 2 			
					; (721–°–º–µ—Å—Ç–∫—ã—Å~ –≤ –≤–∏–¥–µ–æ–±
				—É—Ñ–µ—Ä–µ 
 009F  40				inc AX 				;  ( 1 
				–≠ 1 –°–ø–µ–¥–£JCX–¶–ò–ô —Å–∏–º–≤–æ.–ø 
 00A0  E2 F7				loop screen			
					 ; (74 1 –¶–∏1<J1 11111110–¥–∞ –Ω–∞ :–∞
				–∫—Ä–∞–∏ 
					
						;–û–ø—Ä–µ–¥–µ–ª–∏–º –æ–±—ä—ë–º 
				–¥–æ—Å—Ç—É–ø–Ω–æ–π —Ñ–∏–∑. –ø–∞–º—è—Ç–∏
 00A2				mem:
 00A2  66| BB 00100001			mov EBX, 100001h
 00A8  B2 49				mov DL, 49h ;—Ä–∞–Ω–¥–æ–º–Ω–æ–µ –∑–Ω–∞—
				á–µ–Ω–∏–µ
 00AA  66| B9 FFEFFFFE			mov ECX, 0ffeffffeh
				
 00B0				check_mem:
 00B0  67| 8A 33			mov DH, DS:[EBX]
 00B3  67| 88 13			mov DS:[EBX], DL ; –∑–∞–ø–∏—Å—å —Å–∏–≥–
				Ω–∞—Ç—É—Ä—ã
 00B6  67| 38 13			cmp DS:[EBX], DL ; —Å—Ä–∞–≤–Ω–µ–Ω–∏–µ —
				Å–∏–≥–Ω–∞—Ç—É—Ä—ã
 00B9  0F 85 00C4 R			jne end_mem
 00BD  67| 88 33			mov DS:[EBX], DH
 00C0  66| 43				inc EBX
 00C2  E2 EC				loop check_mem
					
 00C4				end_mem:
 00C4  66| 33 D2			xor EDX, EDX
 00C7  66| 8B C3			mov EAX, EBX
 00CA  BB 03CC				mov BX, 972
 00CD  66| B9 0000000A			mov ECX, 10
 00D3				divide:	
 00D3  66| F7 F1			div ECX
 00D6  66| 83 C2 30			add EDX, '0'
Microsoft (R) Macro Assembler Version 5.10                  10/6/19 17:38:14
                                                             Page     1-6


 00DA  67| 88 15 00000047 R		mov s, DL
 00E1  67| 8B 15 00000047 R		mov DX, word ptr s
 00E8  26: 89 17			mov ES:[BX], DX
 00EB  83 EB 02				sub BX, 2
 00EE  66| BA 00000000			mov EDX, 0
 00F4  66| 83 F8 00			cmp EAX, 0
 00F8  75 D9				jnz divide
					
					
					;–ü–æ–¥r–æ—Ç–æ–≤–∏–º –ø–µ—Ä–µ—Ö–æ–¥ –≤ 
				—Ä–µ–∞–ª—å–Ω—ã–π —Ä–µz–∫–º 
					;–°—Ñ–æ—Ä–º–∏—Ä—É–µ–º –∏ sarpys–∏–º –¥–
				µ—Å–∫—Ä–∏–ø—Ç–æ—Ä—ã –ê–õ~ —Ä–µ–∞–ø—å–Ω–ær–æ —Ä–
				µ–∂–∏–º–∞ 
 00FA  67| C7 05 00000008 R		mov gdt_data.limit,0FFFFh; (751–ì—Ä–∞–∫
				–∏—Ü–∞ —Å–µrw–µ–Ω—Ç–∞ –¥AX–∫–∫—Ö 
       FFFF			
 0103  67| C7 05 00000010 R		mov gdt_code.limit,0FFFFh; (761–ì—Ä–∞–∫
				–∏—Ü–∞ —Å–µrw–µ–Ω—Ç–∞ –∫–æ–º–∞–∏–¥ 
       FFFF			
 010C  67| C7 05 00000018 R		mov gdt_stack.limit,0FFFFh; (77)–ì—ÄAH–
				∏—Ü–∞ —Å–µr–º–µ–Ω—Ç–∞ —Å—Ç–µ–∫–∞ 
       FFFF			
 0115  67| C7 05 00000020 R		mov gdt_screen.limit,0FFFFh; (781–ì—Ä–∞
				–∫–∏—Ü–∞ –¥–æ–ø–æ–ø–Ω–∏—Ç–µ–ø—å–∏–ær–æ 
       FFFF			
					
					;—Å–µr–º–µ–Ω—Ç–∞ 
 011E  B8 0008				mov AX, 8 ;  ( 79 ) –≠–∞r—Ä—És–∏–º —Ç–µ
				–Ω–µ–≤–æ–π —Ä–µr–∏—Å—Ç—Ä 
 0121  8E D8				mov DS,AX ; (80)—Å–µr–º–µ–Ω—Ç–∞ –¥AH–Ω—
				ã—Ö 
 0123  B8 0018				mov AX, 24 ; (81) 9–∞r—Ä—És–∏–º —Ç–µ–Ω–
				µ–≤–æ–π —Ä–µr–∏—Å—Ç—Ä 
 0126  8E D0				mov SS,AX ; (82)—Å—Ç–µ–∫–∞ 
 0128  B8 0020				mov AX, 32 ; (83) –≠–∞r—Ä—És–∏–º —Ç–µ–Ω
				–µ–≤–æ–π —Ä–µr–∏—Å—Ç—Ä 
 012B  8E C0				mov ES,AX ; (841–¥–æ–ø–ûJI–ò–ò—Ç–µ–ø—å–
				∏–ær–æ —Å–µr–º–µ–Ω—Ç–∞ 
					
					;–í—ã–ø–æ–ø–∫–∏–º –¥–∞–ø—å–∏–∏–π –ø–µ—Ä
				–µ—Ö–æ–¥ –ê–õ~ —Ç–ær–æ, —á—Ç–æ–±—ã sAH–æ–≤–æ s–
				∞r—Ä—És–∏—Ç—å 
					;—Å–µ–ø–µ–∫—Ç–æ—Ä –≤ —Ä–µr–∏—Å—Ç—Ä CS –
				∏ –º–æ–¥–∏—Ñ–∏—Ü–∏—Ä–æ–∞–∞—Ç—å ero —Ç–µ–∏–µ–∞–æ
				–π —Ä–µr–∏—Å—Ç—Ä 
 012D  EA				db 0EAh ; (851–ö–æw–∞–∏–¥–æ–π –¥anJt–Ωe
				ro –ø–µ—Ä–µ—Ö–æ–¥–∞ 
 012E  0132 R				dw offset go ; (861 sarpys–∏–º —Ç–µ–Ω–µ
				–∞–æ–π —Ä–µr–∏—Å—Ç—Ä 
 0130  0010				dw 16 ; (871—Å–µr—ã–µ–Ω—Ç–∞ –∫–æw–∞–∏–¥
				 ; –üepeiiUIID–ß–ò–ú pe:uuc –ø—Ä–æ—Ü–µ—Å—Å–µ—Ä–
				∞ 
					
Microsoft (R) Macro Assembler Version 5.10                  10/6/19 17:38:14
                                                             Page     1-7


					
 0132  0F 20 C0			go: mov EAX,CR0 ; (881–ü–æ.–ø—É—á–∏–º' —Å–æ–¥–µ
				—Ä:–∫–∏–º–æ–µ CR0 
 0135  66| 25 0FFFFFFE			and EAX, 0FFFFFFEh; (891–°–±—Ä–æ—Å–∏–º 
				–±–∏—Ç Pl 
 013B  0F 22 C0				mov CR0, EAX ; ISO 1 9&lUOIIeM –∏ –∞ s 
				–∞–¥ –≤ CR0 
 013E  EA				db 0EAh ;  ( 911 –ö–æ–¥ –ö–û–úAH–¥‚Ä¢ f
				ar jlllp 
 013F  0143 R				dw offset return; (921–°–º–µ—â–µ–∏–∏–µ 
 0141  ---- R				dw text ; (931–°–µr–º–µ–∏—Ç ;–¢–µ–ø–µ—Ä
				‚Ä¢ –ø—Ä–æ—Ü–µ–æ—Å–æ—Ä CIIOIIa —Ä–∞–±–û'.I!–∞–º
				/ 11 pe~IICI–ù ~ 
					; –í–æ—Å—Å—ÇAH–æ–≤–∏–º –æ–ø–µ—Ä–∞—Ü–∏–æ
				–∏–∏–£JD —Å—Ä–µ–¥—É pean‚Ä¢–∏oro p-
					
					
 0143					return: 
 0143  B8 ---- R			mov AX,data ; (94)80CC'JI&JIOIIJ04 
 0146  8E D8				mov DS,AX ; (95)–∞–¥—Ä–µ—Å—É–µ–º–æ—Å—Ç—
				å –¥–∞–∏–∏—ã—Ö 
 0148  B8 ---- R			mov AX,stk ; (9618–æ—Å—Å—ÇAH–æ–≤–∏–º 
 014B  8E D0				mov SS, AX ;  ( 971 –∞–¥—Ä–µ—Å—É–µ–º–æ—
				Å—Ç—å —Å—Ç–µ–∫–∞ ;–†–∞s—Ä–µ—à–∏–º –∞n–ø–∞—Ä–∞—Ç
				–∏–∫–µ –∏ –∏–µw–∞—Å–∫–∏—Ä—É–∞–º—ã–µ –ø—Ä–µ—Ä–∫–
				≤–∞–∏–∏~ 
					
 014D  FB				sti ; (981–†–∞s—Ä .. –µ–∏–∏–µ –ø—Ä–µ—Ä—
				ã–∞–∞–∏–∏–π 
 014E  B0 00			    mov AL,0 ;1(991–°–±—Ä–æ—Å –±–∏—Ç–∞ 7 –∞ –ø–
				æ—Ä—Ç–µ –°–ú–ûS-
 0150  E6 70				out 70h,AL ; (1001 -—Ä–∞s—Ä-–µ–∏–∏–µ NN
				I 1
					
					;	–ü—Ä–æ–∞–µ—Ä10–æ1 Jlloi–üO.JUie
				-‚Ä¢ –§YJUCII–ò–ô DOS –ø–æ—Å–ø–µ –∞–æs–∞—Ä–∞—Ç–
				∞ –∞ pea.n—åiiii–ô piUDD&
 0152  B4 09				mov AH, 09h ; (1011 
 0154  66| BA 0032 R			mov EDX,offset mes ;(1021 
 015A  CD 21				int 21h ;1 11031 
 015C  B8 4C00				mov AX, 4C00h ; (1041 –ó–∞–≤–µ—Ä—à–∏–º 
				–øporpU84' 
 015F  CD 21				int 21h ; (1051 ;–æ–±~–ê–ò~–æ~N –æ–±—Ä–
				∞s–æ–º 
					
 0161				main endp ; (1061 
				
 = 0161				code_size=$-main ; (1071PasNep —Å–µrN–µ–∏—Ç–∞ —
				Ö–æ–º–∞–∏–∏ 
 0161				text ends ; ( 1081 
				
 0000				stk segment stack 'stack'; (1091 
 0000  0100[				db 256 dup ('^') ; (1101 
	   5E			
Microsoft (R) Macro Assembler Version 5.10                  10/6/19 17:38:14
                                                             Page     1-8


			 ]	
				
 0100				stk ends ;111111 
				
				end main ;(1121—Ñ
Microsoft (R) Macro Assembler Version 5.10                  10/6/19 17:38:14
                                                             Symbols-1


Structures and Records:

                N a m e                 Width   # fields
                                        Shift   Width   Mask    Initial

DESCR  . . . . . . . . . . . . .  	0008	0006
  LIMIT  . . . . . . . . . . . .  	0000
  BASE_L . . . . . . . . . . . .  	0002
  BASE_M . . . . . . . . . . . .  	0004
  ATTR_1 . . . . . . . . . . . .  	0005
  ATTR_2 . . . . . . . . . . . .  	0006
  BASE_H . . . . . . . . . . . .  	0007

Segments and Groups:

                N a m e         	Size	Length	 Align	Combine Class

DATA . . . . . . . . . . . . . .  	32 Bit	0048	PARA	NONE	
STK  . . . . . . . . . . . . . .  	32 Bit	0100	PARA	STACK	'STACK'
TEXT . . . . . . . . . . . . . .  	16 Bit	0161	PARA	NONE	'CODE'

Symbols:            

                N a m e         	Type	 Value	 Attr

ATTR . . . . . . . . . . . . . .  	L BYTE	0031	DATA

CHECK_MEM  . . . . . . . . . . .  	L NEAR	00B0	TEXT
CODE_SIZE  . . . . . . . . . . .  	NUMBER	0161	
CONTINUE . . . . . . . . . . . .  	L NEAR	007E	TEXT

DATA_SIZE  . . . . . . . . . . .  	NUMBER	0048	
DIVIDE . . . . . . . . . . . . .  	L NEAR	00D3	TEXT

END_MEM  . . . . . . . . . . . .  	L NEAR	00C4	TEXT

GDT_CODE . . . . . . . . . . . .  	L QWORD	0010	DATA
GDT_DATA . . . . . . . . . . . .  	L QWORD	0008	DATA
GDT_NULL . . . . . . . . . . . .  	L QWORD	0000	DATA
GDT_SCREEN . . . . . . . . . . .  	L QWORD	0020	DATA
GDT_SIZE . . . . . . . . . . . .  	NUMBER	0028	
GDT_STACK  . . . . . . . . . . .  	L QWORD	0018	DATA
GO . . . . . . . . . . . . . . .  	L NEAR	0132	TEXT

MAIN . . . . . . . . . . . . . .  	N PROC	0000	TEXT	Length = 0161
MEM  . . . . . . . . . . . . . .  	L NEAR	00A2	TEXT
MES  . . . . . . . . . . . . . .  	L BYTE	0032	DATA

PDESCR . . . . . . . . . . . . .  	L QWORD	0028	DATA

RETURN . . . . . . . . . . . . .  	L NEAR	0143	TEXT

S  . . . . . . . . . . . . . . .  	L BYTE	0047	DATA
SCREEN . . . . . . . . . . . . .  	L NEAR	0099	TEXT
Microsoft (R) Macro Assembler Version 5.10                  10/6/19 17:38:14
                                                             Symbols-2


SYM  . . . . . . . . . . . . . .  	L BYTE	0030	DATA

@CPU . . . . . . . . . . . . . .  	TEXT  3471		
@FILENAME  . . . . . . . . . . .  	TEXT  proc		
@VERSION . . . . . . . . . . . .  	TEXT  510		


    195 Source  Lines
    195 Total   Lines
     39 Symbols

  47884 + 445038 Bytes symbol space free

      1 Warning Errors
      0 Severe  Errors
